; Function Attrs: null_pointer_is_valid sspstrong uwtable
define internal i32 @dissect_ICBAAccoCallback_OnDataChanged_rqst(ptr noundef %0, i32 noundef %1, ptr noundef %2, ptr noundef %3, ptr noundef %4, ptr noundef %5) #0 {
  %7 = alloca i32, align 4
  %8 = alloca i32, align 4
  call void @llvm.lifetime.start.p0(i64 4, ptr nonnull %7) #12
  call void @llvm.lifetime.start.p0(i64 4, ptr nonnull %8) #12
  %9 = tail call i32 @dissect_dcom_this(ptr noundef %0, i32 noundef %1, ptr noundef %2, ptr noundef %3, ptr noundef %4, ptr noundef %5)
  %10 = getelementptr inbounds nuw i8, ptr %2, i64 184
  %11 = getelementptr inbounds nuw i8, ptr %4, i64 64
  %12 = load ptr, ptr %11, align 8
  %13 = getelementptr inbounds nuw i8, ptr %12, i64 20
  %14 = tail call ptr @dcom_interface_find(ptr noundef %2, ptr noundef nonnull %10, ptr noundef nonnull %13)
  %.not.i = icmp eq ptr %14, null
  br i1 %.not.i, label %29, label %15

15:                                               ; preds = %6
  %16 = getelementptr inbounds nuw i8, ptr %14, i64 8
  %17 = load ptr, ptr %16, align 8
  %18 = icmp eq ptr %17, null
  br i1 %18, label %19, label %cba_ldev_find.exit

19:                                               ; preds = %15
  %20 = load ptr, ptr %14, align 8
  %21 = getelementptr inbounds nuw i8, ptr %20, i64 16
  %22 = load ptr, ptr %21, align 8
  %23 = icmp eq ptr %22, null
  br i1 %23, label %24, label %cba_ldev_find.exit

24:                                               ; preds = %19
  %25 = getelementptr inbounds nuw i8, ptr %2, i64 408
  %26 = load ptr, ptr %25, align 8
  %27 = tail call ptr @address_to_str(ptr noundef %26, ptr noundef nonnull %10)
  %28 = tail call ptr (ptr, ptr, ptr, ptr, ...) @expert_add_info_format(ptr noundef %2, ptr noundef null, ptr noundef nonnull @ei_cba_acco_ldev_unknown, ptr noundef nonnull @.str.4, ptr noundef %27)
  br label %cba_ldev_find.exit

29:                                               ; preds = %6
  %30 = getelementptr inbounds nuw i8, ptr %2, i64 408
  %31 = load ptr, ptr %30, align 8
  %32 = tail call ptr @address_to_str(ptr noundef %31, ptr noundef nonnull %10)
  %33 = tail call ptr (ptr, ptr, ptr, ptr, ...) @expert_add_info_format(ptr noundef %2, ptr noundef null, ptr noundef nonnull @ei_cba_acco_ipid_unknown, ptr noundef nonnull @.str.5, ptr noundef %32)
  br label %cba_ldev_find.exit

cba_ldev_find.exit:                               ; preds = %15, %19, %24, %29
  %.1.i = phi ptr [ null, %24 ], [ %22, %19 ], [ null, %29 ], [ %17, %15 ]
  %34 = load i32, ptr @hf_cba_acco_dcom_call, align 4
  %35 = tail call ptr @proto_tree_add_boolean(ptr noundef %3, i32 noundef %34, ptr noundef %0, i32 noundef %9, i32 noundef 0, i64 noundef 0)
  %.not.i34 = icmp eq ptr %35, null
  br i1 %.not.i34, label %proto_item_set_generated.exit, label %36

36:                                               ; preds = %cba_ldev_find.exit
  %37 = getelementptr inbounds nuw i8, ptr %35, i64 40
  %38 = load ptr, ptr %37, align 8
  %.not5.i = icmp eq ptr %38, null
  br i1 %.not5.i, label %proto_item_set_generated.exit, label %39

39:                                               ; preds = %36
  %40 = getelementptr inbounds nuw i8, ptr %38, i64 28
  %41 = load i32, ptr %40, align 4
  %42 = or i32 %41, 2
  store i32 %42, ptr %40, align 4
  br label %proto_item_set_generated.exit

proto_item_set_generated.exit:                    ; preds = %cba_ldev_find.exit, %36, %39
  %43 = getelementptr inbounds nuw i8, ptr %2, i64 408
  %44 = load ptr, ptr %43, align 8
  %45 = load i32, ptr @proto_ICBAAccoMgt, align 4
  tail call void @p_add_proto_data(ptr noundef %44, ptr noundef %2, i32 noundef %45, i32 noundef 0, ptr noundef nonnull inttoptr (i64 1 to ptr))
  %46 = load i32, ptr @hf_cba_acco_cb_length, align 4
  %47 = call i32 @dissect_ndr_uint32(ptr noundef %0, i32 noundef %9, ptr noundef %2, ptr noundef %3, ptr noundef %4, ptr noundef %5, i32 noundef %46, ptr noundef nonnull %7)
  %48 = call i32 @dissect_dcom_dcerpc_array_size(ptr noundef %0, i32 noundef %47, ptr noundef %2, ptr noundef %3, ptr noundef %4, ptr noundef %5, ptr noundef nonnull %8)
  %49 = call ptr @tvb_new_subset_remaining(ptr noundef %0, i32 noundef %48)
  %50 = call fastcc i32 @dissect_CBA_Connection_Data(ptr noundef %49, ptr noundef %2, ptr noundef %3, ptr noundef %.1.i, ptr noundef null)
  %51 = add i32 %50, %48
  call void @llvm.lifetime.end.p0(i64 4, ptr nonnull %8) #12
  call void @llvm.lifetime.end.p0(i64 4, ptr nonnull %7) #12
  ret i32 %51
}